target datalayout = "e-m:e-p270:32:32-p271:32:32-p272:64:64-i64:64-i128:128-f80:128-n8:16:32:64-S128"
target triple = "x86_64-pc-linux-gnu"

%struct.quic_txpim_pkt_ex_st = type { %struct.quic_txpim_pkt_st, ptr, ptr, ptr, i64, i64, i8 }
%struct.quic_txpim_pkt_st = type { %struct.ossl_ackm_tx_pkt_st, ptr, ptr, i8, i8 }
%struct.ossl_ackm_tx_pkt_st = type { i64, i64, %struct.OSSL_TIME, i64, i8, ptr, ptr, ptr, ptr, %struct.anon, ptr, ptr }
%struct.OSSL_TIME = type { i64 }
%struct.anon = type { ptr, ptr }
%struct.quic_txpim_chunk_st = type { i64, i64, i64, i8 }

@.str = private unnamed_addr constant [33 x i8] c"../openssl/ssl/quic/quic_txpim.c\00", align 1

; Function Attrs: nounwind uwtable
define i32 @ossl_quic_txpim_pkt_append_chunk(ptr noundef %0, ptr noundef %1) #0 {
  %3 = alloca i32, align 4
  %4 = alloca ptr, align 8
  %5 = alloca ptr, align 8
  %6 = alloca ptr, align 8
  %7 = alloca ptr, align 8
  %8 = alloca i64, align 8
  %9 = alloca i32, align 4
  store ptr %0, ptr %4, align 8, !tbaa !36
  store ptr %1, ptr %5, align 8, !tbaa !44
  call void @llvm.lifetime.start.p0(i64 8, ptr %6) #5
  %10 = load ptr, ptr %4, align 8, !tbaa !36
  store ptr %10, ptr %6, align 8, !tbaa !13
  call void @llvm.lifetime.start.p0(i64 8, ptr %7) #5
  call void @llvm.lifetime.start.p0(i64 8, ptr %8) #5
  %11 = load ptr, ptr %6, align 8, !tbaa !13
  %12 = getelementptr inbounds nuw %struct.quic_txpim_pkt_ex_st, ptr %11, i32 0, i32 5
  %13 = load i64, ptr %12, align 8, !tbaa !45
  store i64 %13, ptr %8, align 8, !tbaa !46
  %14 = load ptr, ptr %6, align 8, !tbaa !13
  %15 = getelementptr inbounds nuw %struct.quic_txpim_pkt_ex_st, ptr %14, i32 0, i32 4
  %16 = load i64, ptr %15, align 8, !tbaa !43
  %17 = load ptr, ptr %6, align 8, !tbaa !13
  %18 = getelementptr inbounds nuw %struct.quic_txpim_pkt_ex_st, ptr %17, i32 0, i32 5
  %19 = load i64, ptr %18, align 8, !tbaa !45
  %20 = icmp eq i64 %16, %19
  br i1 %20, label %21, label %62

21:                                               ; preds = %2
  %22 = load ptr, ptr %6, align 8, !tbaa !13
  %23 = getelementptr inbounds nuw %struct.quic_txpim_pkt_ex_st, ptr %22, i32 0, i32 5
  %24 = load i64, ptr %23, align 8, !tbaa !45
  %25 = icmp eq i64 %24, 0
  br i1 %25, label %26, label %27

26:                                               ; preds = %21
  br label %33

27:                                               ; preds = %21
  %28 = load ptr, ptr %6, align 8, !tbaa !13
  %29 = getelementptr inbounds nuw %struct.quic_txpim_pkt_ex_st, ptr %28, i32 0, i32 5
  %30 = load i64, ptr %29, align 8, !tbaa !45
  %31 = mul i64 %30, 8
  %32 = udiv i64 %31, 5
  br label %33

33:                                               ; preds = %27, %26
  %34 = phi i64 [ 4, %26 ], [ %32, %27 ]
  store i64 %34, ptr %8, align 8, !tbaa !46
  %35 = load i64, ptr %8, align 8, !tbaa !46
  %36 = icmp ugt i64 %35, 512
  br i1 %36, label %37, label %38

37:                                               ; preds = %33
  store i64 512, ptr %8, align 8, !tbaa !46
  br label %38

38:                                               ; preds = %37, %33
  %39 = load ptr, ptr %6, align 8, !tbaa !13
  %40 = getelementptr inbounds nuw %struct.quic_txpim_pkt_ex_st, ptr %39, i32 0, i32 4
  %41 = load i64, ptr %40, align 8, !tbaa !43
  %42 = load i64, ptr %8, align 8, !tbaa !46
  %43 = icmp eq i64 %41, %42
  br i1 %43, label %44, label %45

44:                                               ; preds = %38
  store i32 0, ptr %3, align 4
  store i32 1, ptr %9, align 4
  br label %77

45:                                               ; preds = %38
  %46 = load ptr, ptr %6, align 8, !tbaa !13
  %47 = getelementptr inbounds nuw %struct.quic_txpim_pkt_ex_st, ptr %46, i32 0, i32 3
  %48 = load ptr, ptr %47, align 8, !tbaa !26
  %49 = load i64, ptr %8, align 8, !tbaa !46
  %50 = mul i64 %49, 32
  %51 = call ptr @CRYPTO_realloc(ptr noundef %48, i64 noundef %50, ptr noundef @.str, i32 noundef 173)
  store ptr %51, ptr %7, align 8, !tbaa !44
  %52 = load ptr, ptr %7, align 8, !tbaa !44
  %53 = icmp eq ptr %52, null
  br i1 %53, label %54, label %55

54:                                               ; preds = %45
  store i32 0, ptr %3, align 4
  store i32 1, ptr %9, align 4
  br label %77

55:                                               ; preds = %45
  %56 = load ptr, ptr %7, align 8, !tbaa !44
  %57 = load ptr, ptr %6, align 8, !tbaa !13
  %58 = getelementptr inbounds nuw %struct.quic_txpim_pkt_ex_st, ptr %57, i32 0, i32 3
  store ptr %56, ptr %58, align 8, !tbaa !26
  %59 = load i64, ptr %8, align 8, !tbaa !46
  %60 = load ptr, ptr %6, align 8, !tbaa !13
  %61 = getelementptr inbounds nuw %struct.quic_txpim_pkt_ex_st, ptr %60, i32 0, i32 5
  store i64 %59, ptr %61, align 8, !tbaa !45
  br label %62

62:                                               ; preds = %55, %2
  %63 = load ptr, ptr %6, align 8, !tbaa !13
  %64 = getelementptr inbounds nuw %struct.quic_txpim_pkt_ex_st, ptr %63, i32 0, i32 3
  %65 = load ptr, ptr %64, align 8, !tbaa !26
  %66 = load ptr, ptr %6, align 8, !tbaa !13
  %67 = getelementptr inbounds nuw %struct.quic_txpim_pkt_ex_st, ptr %66, i32 0, i32 4
  %68 = load i64, ptr %67, align 8, !tbaa !43
  %69 = add i64 %68, 1
  store i64 %69, ptr %67, align 8, !tbaa !43
  %70 = getelementptr inbounds nuw %struct.quic_txpim_chunk_st, ptr %65, i64 %68
  %71 = load ptr, ptr %5, align 8, !tbaa !44
  call void @llvm.memcpy.p0.p0.i64(ptr align 8 %70, ptr align 8 %71, i64 32, i1 false), !tbaa.struct !47
  %72 = load ptr, ptr %6, align 8, !tbaa !13
  %73 = getelementptr inbounds nuw %struct.quic_txpim_pkt_ex_st, ptr %72, i32 0, i32 6
  %74 = load i8, ptr %73, align 8
  %75 = and i8 %74, -2
  %76 = or i8 %75, 1
  store i8 %76, ptr %73, align 8
  store i32 1, ptr %3, align 4
  store i32 1, ptr %9, align 4
  br label %77

77:                                               ; preds = %62, %54, %44
  call void @llvm.lifetime.end.p0(i64 8, ptr %8) #5
  call void @llvm.lifetime.end.p0(i64 8, ptr %7) #5
  call void @llvm.lifetime.end.p0(i64 8, ptr %6) #5
  %78 = load i32, ptr %3, align 4
  ret i32 %78
}